; Function Attrs: mustprogress nofree norecurse nosync nounwind null_pointer_is_valid sspstrong willreturn memory(read, inaccessiblemem: none) uwtable
define noundef ptr @_ZN16ExpertPacketItem5childEi(ptr noundef readonly align 8 captures(none) dereferenceable_or_null(136) %0, i32 noundef %1) local_unnamed_addr #8 align 2 {
  %3 = sext i32 %1 to i64
  %4 = getelementptr inbounds nuw i8, ptr %0, i64 112
  %5 = load i64, ptr %4, align 8
  %6 = icmp ugt i64 %5, %3
  br i1 %6, label %7, label %_ZNK5QListIP16ExpertPacketItemE5valueEx.exit

7:                                                ; preds = %2
  %8 = getelementptr inbounds nuw i8, ptr %0, i64 104
  %9 = load ptr, ptr %8, align 8
  %10 = getelementptr ptr, ptr %9, i64 %3
  %11 = load ptr, ptr %10, align 8
  br label %_ZNK5QListIP16ExpertPacketItemE5valueEx.exit

_ZNK5QListIP16ExpertPacketItemE5valueEx.exit:     ; preds = %2, %7
  %12 = phi ptr [ %11, %7 ], [ null, %2 ]
  ret ptr %12
}